; Function Attrs: nounwind uwtable
define internal range(i32 -1, 1) i32 @QQ_setitem(ptr noundef readonly captures(none) %0, i64 noundef %1, ptr noundef %2) #0 {
  %4 = getelementptr i8, ptr %2, i64 8
  %.val = load ptr, ptr %4, align 8, !tbaa !19
  %5 = getelementptr i8, ptr %.val, i64 168
  %.val22 = load i64, ptr %5, align 8, !tbaa !20
  %6 = and i64 %.val22, 16777216
  %.not.not.not = icmp eq i64 %6, 0
  br i1 %.not.not.not, label %7, label %10

7:                                                ; preds = %3
  %8 = tail call ptr @_PyNumber_Index(ptr noundef nonnull %2) #11
  %9 = icmp eq ptr %8, null
  br i1 %9, label %Py_DECREF.exit20, label %10

10:                                               ; preds = %7, %3
  %.014 = phi ptr [ %2, %3 ], [ %8, %7 ]
  %11 = tail call i64 @PyLong_AsUnsignedLongLong(ptr noundef nonnull %.014) #11
  %12 = icmp eq i64 %11, -1
  br i1 %12, label %13, label %21

13:                                               ; preds = %10
  %14 = tail call ptr @PyErr_Occurred() #11
  %.not17 = icmp eq ptr %14, null
  br i1 %.not17, label %21, label %15

15:                                               ; preds = %13
  br i1 %.not.not.not, label %16, label %Py_DECREF.exit20

16:                                               ; preds = %15
  %17 = load i32, ptr %.014, align 8, !tbaa !17
  %.not.i19 = icmp sgt i32 %17, -1
  br i1 %.not.i19, label %18, label %Py_DECREF.exit20

18:                                               ; preds = %16
  %19 = add nsw i32 %17, -1
  store i32 %19, ptr %.014, align 8, !tbaa !17
  %20 = icmp eq i32 %19, 0
  br i1 %20, label %Py_DECREF.exit20.sink.split, label %Py_DECREF.exit20

21:                                               ; preds = %13, %10
  %22 = icmp sgt i64 %1, -1
  br i1 %22, label %23, label %27

23:                                               ; preds = %21
  %24 = getelementptr inbounds nuw i8, ptr %0, i64 24
  %25 = load ptr, ptr %24, align 8, !tbaa !53
  %26 = getelementptr i64, ptr %25, i64 %1
  store i64 %11, ptr %26, align 8, !tbaa !67
  br label %27

27:                                               ; preds = %23, %21
  br i1 %.not.not.not, label %28, label %Py_DECREF.exit20

28:                                               ; preds = %27
  %29 = load i32, ptr %.014, align 8, !tbaa !17
  %.not.i = icmp sgt i32 %29, -1
  br i1 %.not.i, label %30, label %Py_DECREF.exit20

30:                                               ; preds = %28
  %31 = add nsw i32 %29, -1
  store i32 %31, ptr %.014, align 8, !tbaa !17
  %32 = icmp eq i32 %31, 0
  br i1 %32, label %Py_DECREF.exit20.sink.split, label %Py_DECREF.exit20

Py_DECREF.exit20.sink.split:                      ; preds = %30, %18
  %.013.ph = phi i32 [ -1, %18 ], [ 0, %30 ]
  tail call void @_Py_Dealloc(ptr noundef nonnull %.014) #11
  br label %Py_DECREF.exit20

Py_DECREF.exit20:                                 ; preds = %Py_DECREF.exit20.sink.split, %30, %28, %18, %16, %27, %15, %7
  %.013 = phi i32 [ -1, %7 ], [ -1, %15 ], [ 0, %27 ], [ -1, %16 ], [ -1, %18 ], [ 0, %28 ], [ 0, %30 ], [ %.013.ph, %Py_DECREF.exit20.sink.split ]
  ret i32 %.013
}